target datalayout = "e-m:e-p270:32:32-p271:32:32-p272:64:64-i64:64-i128:128-f80:128-n8:16:32:64-S128"
target triple = "x86_64-pc-linux-gnu"

@.str = private unnamed_addr constant [2 x i8] c"/\00", align 1

; Function Attrs: nounwind uwtable
define zeroext i1 @pmix_path_is_absolute(ptr noundef %0) #0 {
  %2 = alloca i1, align 1
  %3 = alloca ptr, align 8
  store ptr %0, ptr %3, align 8, !tbaa !3
  %4 = load i8, ptr @.str, align 1, !tbaa !8
  %5 = sext i8 %4 to i32
  %6 = load ptr, ptr %3, align 8, !tbaa !3
  %7 = load i8, ptr %6, align 1, !tbaa !8
  %8 = sext i8 %7 to i32
  %9 = icmp eq i32 %5, %8
  br i1 %9, label %10, label %11

10:                                               ; preds = %1
  store i1 true, ptr %2, align 1
  br label %12

11:                                               ; preds = %1
  store i1 false, ptr %2, align 1
  br label %12

12:                                               ; preds = %11, %10
  %13 = load i1, ptr %2, align 1
  ret i1 %13
}

; Function Attrs: nounwind uwtable
define ptr @pmix_find_absolute_path(ptr noundef %0) #0 {
  %2 = alloca ptr, align 8
  %3 = alloca ptr, align 8
  %4 = alloca ptr, align 8
  %5 = alloca [4097 x i8], align 16
  %6 = alloca ptr, align 8
  %7 = alloca i32, align 4
  %8 = alloca ptr, align 8
  store ptr %0, ptr %3, align 8, !tbaa !3
  call void @llvm.lifetime.start.p0(i64 8, ptr %4) #8
  call void @llvm.lifetime.start.p0(i64 4097, ptr %5) #8
  call void @llvm.lifetime.start.p0(i64 8, ptr %6) #8
  %9 = load ptr, ptr %3, align 8, !tbaa !3
  %10 = call zeroext i1 @pmix_path_is_absolute(ptr noundef %9)
  br i1 %10, label %11, label %13

11:                                               ; preds = %1
  %12 = load ptr, ptr %3, align 8, !tbaa !3
  store ptr %12, ptr %4, align 8, !tbaa !3
  br label %39

13:                                               ; preds = %1
  %14 = load ptr, ptr %3, align 8, !tbaa !3
  %15 = getelementptr inbounds i8, ptr %14, i64 0
  %16 = load i8, ptr %15, align 1, !tbaa !8
  %17 = sext i8 %16 to i32
  %18 = icmp eq i32 46, %17
  br i1 %18, label %25, label %19

19:                                               ; preds = %13
  %20 = load ptr, ptr %3, align 8, !tbaa !3
  %21 = load i8, ptr @.str, align 1, !tbaa !8
  %22 = sext i8 %21 to i32
  %23 = call ptr @strchr(ptr noundef %20, i32 noundef %22) #9
  %24 = icmp ne ptr null, %23
  br i1 %24, label %25, label %35

25:                                               ; preds = %19, %13
  %26 = getelementptr inbounds [4097 x i8], ptr %5, i64 0, i64 0
  %27 = call ptr @getcwd(ptr noundef %26, i64 noundef 4097) #8
  store ptr %27, ptr %6, align 8, !tbaa !3
  %28 = load ptr, ptr %6, align 8, !tbaa !3
  %29 = icmp eq ptr null, %28
  br i1 %29, label %30, label %31

30:                                               ; preds = %25
  store ptr null, ptr %2, align 8
  store i32 1, ptr %7, align 4
  br label %61

31:                                               ; preds = %25
  %32 = load ptr, ptr %6, align 8, !tbaa !3
  %33 = load ptr, ptr %3, align 8, !tbaa !3
  %34 = call noalias ptr (i32, ...) @pmix_os_path(i32 noundef 0, ptr noundef %32, ptr noundef %33, ptr noundef null)
  store ptr %34, ptr %4, align 8, !tbaa !3
  br label %38

35:                                               ; preds = %19
  %36 = load ptr, ptr %3, align 8, !tbaa !3
  %37 = call noalias ptr @pmix_path_findv(ptr noundef %36, i32 noundef 1, ptr noundef null, ptr noundef null)
  store ptr %37, ptr %4, align 8, !tbaa !3
  br label %38

38:                                               ; preds = %35, %31
  br label %39

39:                                               ; preds = %38, %11
  %40 = load ptr, ptr %4, align 8, !tbaa !3
  %41 = icmp ne ptr null, %40
  br i1 %41, label %42, label %60

42:                                               ; preds = %39
  call void @llvm.lifetime.start.p0(i64 8, ptr %8) #8
  %43 = call noalias ptr @malloc(i64 noundef 4097) #10
  store ptr %43, ptr %8, align 8, !tbaa !3
  %44 = load ptr, ptr %4, align 8, !tbaa !3
  %45 = load ptr, ptr %8, align 8, !tbaa !3
  %46 = call ptr @realpath(ptr noundef %44, ptr noundef %45) #8
  %47 = icmp eq ptr null, %46
  br i1 %47, label %48, label %51

48:                                               ; preds = %42
  %49 = load ptr, ptr %8, align 8, !tbaa !3
  call void @free(ptr noundef %49) #8
  %50 = load ptr, ptr %4, align 8, !tbaa !3
  call void @free(ptr noundef %50) #8
  store ptr null, ptr %2, align 8
  store i32 1, ptr %7, align 4
  br label %59

51:                                               ; preds = %42
  %52 = load ptr, ptr %4, align 8, !tbaa !3
  %53 = load ptr, ptr %3, align 8, !tbaa !3
  %54 = icmp ne ptr %52, %53
  br i1 %54, label %55, label %57

55:                                               ; preds = %51
  %56 = load ptr, ptr %4, align 8, !tbaa !3
  call void @free(ptr noundef %56) #8
  br label %57

57:                                               ; preds = %55, %51
  %58 = load ptr, ptr %8, align 8, !tbaa !3
  store ptr %58, ptr %2, align 8
  store i32 1, ptr %7, align 4
  br label %59

59:                                               ; preds = %57, %48
  call void @llvm.lifetime.end.p0(i64 8, ptr %8) #8
  br label %61

60:                                               ; preds = %39
  store ptr null, ptr %2, align 8
  store i32 1, ptr %7, align 4
  br label %61

61:                                               ; preds = %60, %59, %30
  call void @llvm.lifetime.end.p0(i64 8, ptr %6) #8
  call void @llvm.lifetime.end.p0(i64 4097, ptr %5) #8
  call void @llvm.lifetime.end.p0(i64 8, ptr %4) #8
  %62 = load ptr, ptr %2, align 8
  ret ptr %62
}