; Function Attrs: nounwind uwtable
define noundef ptr @pmix_find_absolute_path(ptr noundef %0) local_unnamed_addr #1 {
  %2 = alloca [4097 x i8], align 16
  call void @llvm.lifetime.start.p0(i64 4097, ptr nonnull %2) #14
  %3 = load i8, ptr %0, align 1, !tbaa !3
  switch i8 %3, label %4 [
    i8 47, label %.thread
    i8 46, label %6
  ]

4:                                                ; preds = %1
  %5 = tail call ptr @strchr(ptr noundef nonnull dereferenceable(1) %0, i32 noundef 47) #15
  %.not = icmp eq ptr %5, null
  br i1 %.not, label %11, label %6

6:                                                ; preds = %1, %4
  %7 = call ptr @getcwd(ptr noundef nonnull %2, i64 noundef 4097) #14
  %8 = icmp eq ptr %7, null
  br i1 %8, label %19, label %9

9:                                                ; preds = %6
  %10 = call noalias ptr (i32, ...) @pmix_os_path(i32 noundef 0, ptr noundef nonnull %7, ptr noundef nonnull %0, ptr noundef null) #14
  br label %13

11:                                               ; preds = %4
  %12 = tail call noalias ptr @pmix_path_findv(ptr noundef nonnull %0, i32 noundef 1, ptr noundef null, ptr noundef null)
  br label %13

13:                                               ; preds = %9, %11
  %.018 = phi ptr [ %10, %9 ], [ %12, %11 ]
  %.not20 = icmp eq ptr %.018, null
  br i1 %.not20, label %19, label %.thread

.thread:                                          ; preds = %1, %13
  %.01824 = phi ptr [ %.018, %13 ], [ %0, %1 ]
  %14 = call noalias dereferenceable_or_null(4097) ptr @malloc(i64 noundef 4097) #16
  %15 = call ptr @realpath(ptr noundef nonnull %.01824, ptr noundef %14) #14
  %16 = icmp eq ptr %15, null
  br i1 %16, label %17, label %18

17:                                               ; preds = %.thread
  call void @free(ptr noundef %14) #14
  br label %.sink.split

18:                                               ; preds = %.thread
  %.not21 = icmp eq ptr %.01824, %0
  br i1 %.not21, label %19, label %.sink.split

.sink.split:                                      ; preds = %18, %17
  %.0.ph = phi ptr [ null, %17 ], [ %14, %18 ]
  call void @free(ptr noundef nonnull %.01824) #14
  br label %19

19:                                               ; preds = %.sink.split, %13, %18, %6
  %.0 = phi ptr [ null, %6 ], [ %14, %18 ], [ null, %13 ], [ %.0.ph, %.sink.split ]
  call void @llvm.lifetime.end.p0(i64 4097, ptr nonnull %2) #14
  ret ptr %.0
}